; Function Attrs: nounwind uwtable
define ptr @l_Array_findSomeRevM_x3f_find___at_Lean_resolveLocalName___spec__9(ptr noundef %0, ptr noundef readonly captures(none) %1, ptr noundef %2, ptr readnone captures(none) %3) local_unnamed_addr #1 {
  %5 = getelementptr inbounds nuw i8, ptr %1, i64 24
  br label %lean_dec.exit23

lean_dec.exit23:                                  ; preds = %lean_obj_tag.exit, %4
  %.020 = phi ptr [ %2, %4 ], [ %.1.i37, %lean_obj_tag.exit ]
  %6 = ptrtoint ptr %.020 to i64
  %7 = and i64 %6, 1
  %.not = icmp eq i64 %7, 0
  br i1 %.not, label %lean_nat_eq.exit.thread, label %lean_nat_eq.exit, !prof !18

lean_nat_eq.exit:                                 ; preds = %lean_dec.exit23
  %.not45 = icmp eq ptr %.020, inttoptr (i64 1 to ptr)
  br i1 %.not45, label %.loopexit, label %9

lean_nat_eq.exit.thread:                          ; preds = %lean_dec.exit23
  %8 = tail call zeroext i1 @lean_nat_big_eq(ptr noundef %.020, ptr noundef nonnull inttoptr (i64 1 to ptr)) #6
  br i1 %8, label %.thread38, label %.thread

9:                                                ; preds = %lean_nat_eq.exit
  %10 = icmp ult ptr %.020, inttoptr (i64 2 to ptr)
  br i1 %10, label %lean_dec.exit25, label %11

11:                                               ; preds = %9
  %12 = add i64 %6, -2
  %13 = inttoptr i64 %12 to ptr
  br label %lean_dec.exit25

.thread:                                          ; preds = %lean_nat_eq.exit.thread
  %14 = tail call ptr @lean_nat_big_sub(ptr noundef %.020, ptr noundef nonnull inttoptr (i64 3 to ptr)) #6
  %15 = load i32, ptr %.020, align 4, !tbaa !4
  %16 = icmp sgt i32 %15, 1
  br i1 %16, label %17, label %19, !prof !11

17:                                               ; preds = %.thread
  %18 = add nsw i32 %15, -1
  store i32 %18, ptr %.020, align 4, !tbaa !4
  br label %lean_dec.exit25

19:                                               ; preds = %.thread
  %.not.i = icmp eq i32 %15, 0
  br i1 %.not.i, label %lean_dec.exit25, label %20

20:                                               ; preds = %19
  tail call void @lean_dec_ref_cold(ptr noundef nonnull %.020) #6
  br label %lean_dec.exit25

lean_dec.exit25:                                  ; preds = %11, %9, %20, %19, %17
  %.1.i37 = phi ptr [ %14, %17 ], [ %14, %19 ], [ %14, %20 ], [ inttoptr (i64 1 to ptr), %9 ], [ %13, %11 ]
  %21 = ptrtoint ptr %.1.i37 to i64
  %22 = lshr i64 %21, 1
  %23 = getelementptr inbounds nuw [0 x ptr], ptr %5, i64 0, i64 %22
  %24 = load ptr, ptr %23, align 8, !tbaa !9
  %25 = ptrtoint ptr %24 to i64
  %26 = and i64 %25, 1
  %.not.i.i = icmp eq i64 %26, 0
  br i1 %.not.i.i, label %27, label %lean_array_fget.exit

27:                                               ; preds = %lean_dec.exit25
  %.val.i.i.i = load i32, ptr %24, align 4, !tbaa !4
  %28 = icmp sgt i32 %.val.i.i.i, 0
  br i1 %28, label %29, label %31, !prof !11

29:                                               ; preds = %27
  %30 = add nuw i32 %.val.i.i.i, 1
  store i32 %30, ptr %24, align 4, !tbaa !4
  br label %34

31:                                               ; preds = %27
  %.not.i.i.i = icmp eq i32 %.val.i.i.i, 0
  br i1 %.not.i.i.i, label %34, label %32

32:                                               ; preds = %31
  tail call void @lean_inc_ref_cold(ptr noundef nonnull %24) #6
  br label %34

lean_array_fget.exit:                             ; preds = %lean_dec.exit25
  %33 = tail call ptr @l_Lean_PersistentArray_findSomeRevMAux___at_Lean_resolveLocalName___spec__8(ptr noundef %0, ptr noundef %24)
  br label %lean_dec.exit24

34:                                               ; preds = %29, %31, %32
  %35 = tail call ptr @l_Lean_PersistentArray_findSomeRevMAux___at_Lean_resolveLocalName___spec__8(ptr noundef %0, ptr noundef nonnull %24)
  %36 = load i32, ptr %24, align 4, !tbaa !4
  %37 = icmp sgt i32 %36, 1
  br i1 %37, label %38, label %40, !prof !11

38:                                               ; preds = %34
  %39 = add nsw i32 %36, -1
  store i32 %39, ptr %24, align 4, !tbaa !4
  br label %lean_dec.exit24

40:                                               ; preds = %34
  %.not.i26 = icmp eq i32 %36, 0
  br i1 %.not.i26, label %lean_dec.exit24, label %41

41:                                               ; preds = %40
  tail call void @lean_dec_ref_cold(ptr noundef nonnull %24) #6
  br label %lean_dec.exit24

lean_dec.exit24:                                  ; preds = %41, %40, %38, %lean_array_fget.exit
  %42 = phi ptr [ %33, %lean_array_fget.exit ], [ %35, %38 ], [ %35, %40 ], [ %35, %41 ]
  %43 = ptrtoint ptr %42 to i64
  %44 = and i64 %43, 1
  %.not.i33 = icmp eq i64 %44, 0
  br i1 %.not.i33, label %48, label %45

45:                                               ; preds = %lean_dec.exit24
  %46 = lshr i64 %43, 1
  %47 = trunc i64 %46 to i32
  br label %lean_obj_tag.exit

48:                                               ; preds = %lean_dec.exit24
  %49 = getelementptr i8, ptr %42, i64 4
  %.val.i = load i32, ptr %49, align 4
  %50 = lshr i32 %.val.i, 24
  br label %lean_obj_tag.exit

lean_obj_tag.exit:                                ; preds = %45, %48
  %.0.i34 = phi i32 [ %47, %45 ], [ %50, %48 ]
  %51 = icmp eq i32 %.0.i34, 0
  br i1 %51, label %lean_dec.exit23, label %52

52:                                               ; preds = %lean_obj_tag.exit
  %53 = and i64 %21, 1
  %.not46 = icmp eq i64 %53, 0
  br i1 %.not46, label %54, label %.loopexit

54:                                               ; preds = %52
  %55 = load i32, ptr %.1.i37, align 4, !tbaa !4
  %56 = icmp sgt i32 %55, 1
  br i1 %56, label %57, label %59, !prof !11

57:                                               ; preds = %54
  %58 = add nsw i32 %55, -1
  store i32 %58, ptr %.1.i37, align 4, !tbaa !4
  br label %.loopexit

59:                                               ; preds = %54
  %.not.i28 = icmp eq i32 %55, 0
  br i1 %.not.i28, label %.loopexit, label %60

60:                                               ; preds = %59
  tail call void @lean_dec_ref_cold(ptr noundef nonnull %.1.i37) #6
  br label %.loopexit

.thread38:                                        ; preds = %lean_nat_eq.exit.thread
  %61 = load i32, ptr %.020, align 4, !tbaa !4
  %62 = icmp sgt i32 %61, 1
  br i1 %62, label %63, label %65, !prof !11

63:                                               ; preds = %.thread38
  %64 = add nsw i32 %61, -1
  store i32 %64, ptr %.020, align 4, !tbaa !4
  br label %.loopexit

65:                                               ; preds = %.thread38
  %.not.i30 = icmp eq i32 %61, 0
  br i1 %.not.i30, label %.loopexit, label %66

66:                                               ; preds = %65
  tail call void @lean_dec_ref_cold(ptr noundef nonnull %.020) #6
  br label %.loopexit

.loopexit:                                        ; preds = %lean_nat_eq.exit, %60, %59, %57, %52, %66, %65, %63
  %.2.ph = phi ptr [ inttoptr (i64 1 to ptr), %63 ], [ inttoptr (i64 1 to ptr), %65 ], [ inttoptr (i64 1 to ptr), %66 ], [ %42, %52 ], [ %42, %57 ], [ %42, %59 ], [ %42, %60 ], [ inttoptr (i64 1 to ptr), %lean_nat_eq.exit ]
  ret ptr %.2.ph
}